Catchpoint 1 (exec)
Breakpoint 2 at 0x4820
Breakpoint 3 at 0x48d0
Breakpoint 4 at 0x48b0
Breakpoint 5 (_exit) pending.
[Thread debugging using libthread_db enabled]
Using host libthread_db library "/lib/x86_64-linux-gnu/libthread_db.so.1".

Breakpoint 4, 0x00007ffff7993a40 in exit () from /lib/x86_64-linux-gnu/libc.so.6
   
   (Message) I'll start by investigating the program and understanding what's
   happening. Let me examine the test first.
could not retrieve source code for any frames.
   (Message) I'll start by investigating the program and understanding what's
   happening. Let me examine the test first.
   (ChatDBG gdb) info target
   Symbols from "/work/test-atoms".
   Native process:
           Using the running image of child process 27.
           While running this, GDB does not access memory from...
   Local exec file:
           `/work/test-atoms', file type elf64-x86-64.
           Entry point: 0x555555558f20
           0x0000555555554318 - 0x0000555555554334 is .interp
           0x0000555555554338 - 0x0000555555554358 is .note.gnu.property
           0x0000555555554358 - 0x000055555555437c is .note.gnu.build-id
           0x000055555555437c - 0x000055555555439c is .note.ABI-tag
           0x00005555555543a0 - 0x00005555555543dc is .gnu.hash
           0x00005555555543e0 - 0x0000555555554fb0 is .dynsym
           0x0000555555554fb0 - 0x00005555555555e7 is .dynstr
           0x00005555555555e8 - 0x00005555555556e4 is .gnu.version
           0x00005555555556e8 - 0x00005555555557f8 is .gnu.version_r
           0x00005555555557f8 - 0x0000555555556cb0 is .rela.dyn
           0x0000555555556cb0 - 0x0000555555557778 is .rela.plt
           0x0000555555558000 - 0x000055555555801b is .init
           0x0000555555558020 - 0x0000555555558760 is .plt
           0x0000555555558760 - 0x0000555555558790 is .plt.got
           0x0000555555558790 - 0x0000555555558ec0 is .plt.sec
           0x0000555555558ec0 - 0x0000555555593765 is .text
           0x0000555555593768 - 0x0000555555593775 is .fini
           0x0000555555594000 - 0x000055555559f6c5 is .rodata
           0x000055555559f6c8 - 0x00005555555a072c is .eh_frame_hdr
           0x00005555555a0730 - 0x00005555555a68a0 is .eh_frame
           0x00005555555a8450 - 0x00005555555a8458 is .init_array
           0x00005555555a8458 - 0x00005555555a8460 is .fini_array
           0x00005555555a8460 - 0x00005555555a89c8 is .data.rel.ro
           0x00005555555a89c8 - 0x00005555555a8bf8 is .dynamic
           0x00005555555a8bf8 - 0x00005555555a8ff8 is .got
           0x00005555555a9000 - 0x00005555555a9540 is .data
           0x00005555555a9540 - 0x00005555555a9d00 is .bss
           0x00007ffff7fcf2a8 - 0x00007ffff7fcf2c8 is .note.gnu.property in /lib64/ld-linux-x86-64.so.2
           0x00007ffff7fcf2c8 - 0x00007ffff7fcf2ec is .note.gnu.build-id in /lib64/ld-linux-x86-64.so.2
           0x00007ffff7fcf2f0 - 0x00007ffff7fcf3c4 is .hash in /lib64/ld-linux-x86-64.so.2
           0x00007ffff7fcf3c8 - 0x00007ffff7fcf4c0 is .gnu.hash in /lib64/ld-linux-x86-64.so.2
           0x00007ffff7fcf4c0 - 0x00007ffff7fcf7f0 is .dynsym in /lib64/ld-linux-x86-64.so.2
           0x00007ffff7fcf7f0 - 0x00007ffff7fcfa14 is .dynstr in /lib64/ld-linux-x86-64.so.2
           0x00007ffff7fcfa14 - 0x00007ffff7fcfa58 is .gnu.version in /lib64/ld-linux-x86-64.so.2
           0x00007ffff7fcfa58 - 0x00007ffff7fcfafc is .gnu.version_d in /lib64/ld-linux-x86-64.so.2
           0x00007ffff7fcfb00 - 0x00007ffff7fcff20 is .rela.dyn in /lib64/ld-linux-x86-64.so.2
           0x00007ffff7fcff20 - 0x00007ffff7fcffc8 is .rela.plt in /lib64/ld-linux-x86-64.so.2
           0x00007ffff7fd0000 - 0x00007ffff7fd0080 is .plt in /lib64/ld-linux-x86-64.so.2
           0x00007ffff7fd0080 - 0x00007ffff7fd0090 is .plt.got in /lib64/ld-linux-x86-64.so.2
           0x00007ffff7fd0090 - 0x00007ffff7fd0100 is .plt.sec in /lib64/ld-linux-x86-64.so.2
           0x00007ffff7fd0100 - 0x00007ffff7ff2684 is .text in /lib64/ld-linux-x86-64.so.2
           0x00007ffff7ff3000 - 0x00007ffff7ff7dbb is .rodata in /lib64/ld-linux-x86-64.so.2
           0x00007ffff7ff7dbb - 0x00007ffff7ff7dbc is .stapsdt.base in /lib64/ld-linux-x86-64.so.2
           0x00007ffff7ff7dbc - 0x00007ffff7ff84e0 is .eh_frame_hdr in /lib64/ld-linux-x86-64.so.2
           0x00007ffff7ff84e0 - 0x00007ffff7ffaccc is .eh_frame in /lib64/ld-linux-x86-64.so.2
           0x00007ffff7ffc520 - 0x00007ffff7ffce64 is .data.rel.ro in /lib64/ld-linux-x86-64.so.2
           /opt/chatdbg-venv/lib/python3.11/site-packages/pydantic/main.py:475: UserWarning: Pydantic serializer warnings:
     PydanticSerializationUnexpectedValue(Expected 5 fields but got 4: Expected `Message` - serialized value may not be as expected [field_name='choices', input_value=Message(content="I'll sta...')], function_call=None), input_type=Message])
     PydanticSerializationUnexpectedValue(Expected `StreamingChoices` - serialized value may not be as expected [field_name='choices', input_value=Choices(finish_reason='to...)], function_call=None)), input_type=Choices])
     return self.__pydantic_serializer__.to_python(
    - 0x00007ffff7ffcfd8 is .dynamic in /lib64/ld-linux-x86-64.so.2
           0x00007ffff7ffcfd8 - 0x00007ffff7ffcfe8 is .got in /lib64/ld-linux-x86-64.so.2
           0x00007ffff7ffd000 - 0x00007ffff7ffd050 is .got.plt in /lib64/ld-linux-x86-64.so.2
           0x00007ffff7ffd060 - 0x00007ffff7ffdff8 is .data in /lib64/ld-linux-x86-64.so.2
           0x00007ffff7ffe000 - 0x00007ffff7ffe190 is .bss in /lib64/ld-linux-x86-64.so.2
           0x00007ffff7fcd120 - 0x00007ffff7fcd168 is .hash in system-supplied DSO at 0x7ffff7fcd000
           0x00007ffff7fcd168 - 0x00007ffff7fcd1c4 is .gnu.hash in system-supplied DSO at 0x7ffff7fcd000
           0x00007ffff7fcd1c8 - 0x00007ffff7fcd300 is .dynsym in system-supplied DSO at 0x7ffff7fcd000
           0x00007ffff7fcd300 - 0x00007ffff7fcd38b is .dynstr in system-supplied DSO at 0x7ffff7fcd000
           0x00007ffff7fcd38c - 0x00007ffff7fcd3a6 is .gnu.version in system-supplied DSO at 0x7ffff7fcd000
           0x00007ffff7fcd3a8 - 0x00007ffff7fcd3e0 is .gnu.version_d in system-supplied DSO at 0x7ffff7fcd000
           0x00007ffff7fcd3e0 - 0x00007ffff7fcd4f0 is .dynamic in system-supplied DSO at 0x7ffff7fcd000
           0x00007ffff7fcd4f0 - 0x00007ffff7fcd544 is .note in system-supplied DSO at 0x7ffff7fcd000
           0x00007ffff7fcd544 - 0x00007ffff7fcd590 is .eh_frame_hdr in system-supplied DSO at 0x7ffff7fcd000
           0x00007ffff7fcd590 - 0x00007ffff7fcd6c0 is .eh_frame in system-supplied DSO at 0x7ffff7fcd000
           0x00007ffff7fcd6c0 - 0x00007ffff7fcdf10 is .text in system-supplied DSO at 0x7ffff7fcd000
           0x00007ffff7fcdf10 - 0x00007ffff7fcdfe2 is .altinstructions in system-supplied DSO at 0x7ffff7fcd000
           0x00007ffff7fcdfe2 - 0x00007ffff7fce01e is .altinstr_replacement in system-supplied DSO at 0x7ffff7fcd000
           0x00007ffff7f872a8 - 0x00007ffff7f872c8 is .note.gnu.property in /lib/x86_64-linux-gnu/liblua5.3.so.0
           0x00007ffff7f872c8 - 0x00007ffff7f872ec is .note.gnu.build-id in /lib/x86_64-linux-gnu/liblua5.3.so.0
           0x00007ffff7f872f0 - 0x00007ffff7f877dc is .gnu.hash in /lib/x86_64-linux-gnu/liblua5.3.so.0
           0x00007ffff7f877e0 - 0x00007ffff7f88e90 is .dynsym in /lib/x86_64-linux-gnu/liblua5.3.so.0
           0x00007ffff7f88e90 - 0x00007ffff7f899f3 is .dynstr in /lib/x86_64-linux-gnu/liblua5.3.so.0
           0x00007ffff7f899f4 - 0x00007ffff7f89bd8 is .gnu.version in /lib/x86_64-linux-gnu/liblua5.3.so.0
           0x00007ffff7f89bd8 - 0x00007ffff7f89c10 is .gnu.version_d in /lib/x86_64-linux-gnu/liblua5.3.so.0
           0x00007ffff7f89c10 - 0x00007ffff7f89cd0 is .gnu.version_r in /lib/x86_64-linux-gnu/liblua5.3.so.0
           0x00007ffff7f89cd0 - 0x00007ffff7f8cb20 is .rela.dyn in /lib/x86_64-linux-gnu/liblua5.3.so.0
           0x00007ffff7f8cb20 - 0x00007ffff7f8d330 is .rela.plt in /lib/x86_64-linux-gnu/liblua5.3.so.0
           0x00007ffff7f8e000 - 0x00007ffff7f8e01b is .init in /lib/x86_64-linux-gnu/liblua5.3.so.0
           0x00007ffff7f8e020 - 0x00007ffff7f8e590 is .plt in /lib/x86_64-linux-gnu/liblua5.3.so.0
           0x00007ffff7f8e590 - 0x00007ffff7f8e5a0 is .plt.got in /lib/x86_64-linux-gnu/liblua5.3.so.0
           0x00007ffff7f8e5a0 - 0x00007ffff7f8eb00 is .plt.sec in /lib/x86_64-linux-gnu/liblua5.3.so.0
           0x00007ffff7f8eb00 - 0x00007ffff7fb1329 is .text in /lib/x86_64-linux-gnu/liblua5.3.so.0
           0x00007ffff7fb132c - 0x00007ffff7fb1339 is .fini in /lib/x86_64-linux-gnu/liblua5.3.so.0
           0x00007ffff7fb2000 - 0x00007ffff7fb5703 is .rodata in /lib/x86_64-linux-gnu/liblua5.3.so.0
           0x00007ffff7fb5704 - 0x00007ffff7fb6bd0 is .eh_frame_hdr in /lib/x86_64-linux-gnu/liblua5.3.so.0
           0x00007ffff7fb6bd0 - 0x00007ffff7fbe42c is .eh_frame in /lib/x86_64-linux-gnu/liblua5.3.so.0
           0x00007ffff7fbfc50 - 0x00007ffff7fbfc58 is .init_array in /lib/x86_64-linux-gnu/liblua5.3.so.0
           0x00007ffff7fbfc58 - 0x00007ffff7fbfc60 is .fini_array in /lib/x86_64-linux-gnu/liblua5.3.so.0
           0x00007ffff7fbfc60 - 0x00007ffff7fc0da0 is .data.rel.ro in /lib/x86_64-linux-gnu/liblua5.3.so.0
           0x00007ffff7fc0da0 - 0x00007ffff7fc0fb0 is .dynamic in /lib/x86_64-linux-gnu/liblua5.3.so.0
           0x00007ffff7fc0fb0 - 0x00007ffff7fc0fe8 is .got in /lib/x86_64-linux-gnu/liblua5.3.so.0
           0x00007ffff7fc1000 - 0x00007ffff7fc12c8 is .got.plt in /lib/x86_64-linux-gnu/liblua5.3.so.0
           0x00007ffff7fc12d0 - 0x00007ffff7fc12f8 is .data in /lib/x86_64-linux-gnu/liblua5.3.so.0
           0x00007ffff7fc12f8 - 0x00007ffff7fc1300 is .bss in /lib/x86_64-linux-gnu/liblua5.3.so.0
           0x00007ffff7cb1238 - 0x00007ffff7cb125c is .note.gnu.build-id in /lib/x86_64-linux-gnu/libcrypto.so.1.1
           0x00007ffff7cb1260 - 0x00007ffff7cba724 is .gnu.hash in /lib/x86_64-linux-gnu/libcrypto.so.1.1
           0x00007ffff7cba728 - 0x00007ffff7cd50b0 is .dynsym in /lib/x86_64-linux-gnu/libcrypto.so.1.1
           0x00007ffff7cd50b0 - 0x00007ffff7cea968 is .dynstr in /lib/x86_64-linux-gnu/libcrypto.so.1.1
           0x00007ffff7cea968 - 0x00007ffff7ceccde is .gnu.version in /lib/x86_64-linux-gnu/libcrypto.so.1.1
           0x00007ffff7cecce0 - 0x00007ffff7ceceec is .gnu.version_d in /lib/x86_64-linux-gnu/libcrypto.so.1.1
           0x00007ffff7cecef0 - 0x00007ffff7cecff0 is .gnu.version_r in /lib/x86_64-linux-gnu/libcrypto.so.1.1
           0x00007ffff7cecff0 - 0x00007ffff7d27ca0 is .rela.dyn in /lib/x86_64-linux-gnu/libcrypto.so.1.1
           0x00007ffff7d27ca0 - 0x00007ffff7d28948 is .rela.plt in /lib/x86_64-linux-gnu/libcrypto.so.1.1
           0x00007ffff7d29000 - 0x00007ffff7d29020 is .init in /lib/x86_64-linux-gnu/libcrypto.so.1.1
           0x00007ffff7d29020 - 0x00007ffff7d298a0 is .plt in /lib/x86_64-linux-gnu/libcrypto.so.1.1
           0x00007ffff7d298a0 - 0x00007ffff7d298c0 is .plt.got in /lib/x86_64-linux-gnu/libcrypto.so.1.1
           0x00007ffff7d2a000 - 0x00007ffff7ec3f10 is .text in /lib/x86_64-linux-gnu/libcrypto.so.1.1
           0x00007ffff7ec3f10 - 0x00007ffff7ec3f1d is .fini in /lib/x86_64-linux-gnu/libcrypto.so.1.1
           0x00007ffff7ec4000 - 0x00007ffff7f07c78 is .rodata in /lib/x86_64-linux-gnu/libcrypto.so.1.1
           0x00007ffff7f07c78 - 0x00007ffff7f145a4 is .eh_frame_hdr in /lib/x86_64-linux-gnu/libcrypto.so.1.1
           0x00007ffff7f145a8 - 0x00007ffff7f54590 is .eh_frame in /lib/x86_64-linux-gnu/libcrypto.so.1.1
           0x00007ffff7f55ab0 - 0x00007ffff7f55ab8 is .init_array in /lib/x86_64-linux-gnu/libcrypto.so.1.1
           0x00007ffff7f55ab8 - 0x00007ffff7f55ac0 is .fini_array in /lib/x86_64-linux-gnu/libcrypto.so.1.1
           0x00007ffff7f55ac0 - 0x00007ffff7f804c8 is .data.rel.ro in /lib/x86_64-linux-gnu/libcrypto.so.1.1
           0x00007ffff7f804c8 - 0x00007ffff7f806f8 is .dynamic in /lib/x86_64-linux-gnu/libcrypto.so.1.1
           0x00007ffff7f806f8 - 0x00007ffff7f80ff8 is .got in /lib/x86_64-linux-gnu/libcrypto.so.1.1
           0x00007ffff7f81000 - 0x00007ffff7f82b70 is .data in /lib/x86_64-linux-gnu/libcrypto.so.1.1
           0x00007ffff7f82b80 - 0x00007ffff7f86fa0 is .bss in /lib/x86_64-linux-gnu/libcrypto.so.1.1
           0x00007ffff7b622a8 - 0x00007ffff7b622c8 is .note.gnu.property in /lib/x86_64-linux-gnu/libm.so.6
           0x00007ffff7b622c8 - 0x00007ffff7b622ec is .note.gnu.build-id in /lib/x86_64-linux-gnu/libm.so.6
           0x00007ffff7b622ec - 0x00007ffff7b6230c is .note.ABI-tag in /lib/x86_64-linux-gnu/libm.so.6
           0x00007ffff7b62310 - 0x00007ffff7b647dc is .gnu.hash in /lib/x86_64-linux-gnu/libm.so.6
           0x00007ffff7b647e0 - 0x00007ffff7b6b0e0 is .dynsym in /lib/x86_64-linux-gnu/libm.so.6
           0x00007ffff7b6b0e0 - 0x00007ffff7b6d446 is .dynstr in /lib/x86_64-linux-gnu/libm.so.6
           0x00007ffff7b6d446 - 0x00007ffff7b6dd06 is .gnu.version in /lib/x86_64-linux-gnu/libm.so.6
           0x00007ffff7b6dd08 - 0x00007ffff7b6decc is .gnu.version_d in /lib/x86_64-linux-gnu/libm.so.6
           0x00007ffff7b6ded0 - 0x00007ffff7b6df30 is .gnu.version_r in /lib/x86_64-linux-gnu/libm.so.6
           0x00007ffff7b6df30 - 0x00007ffff7b6e068 is .rela.dyn in /lib/x86_64-linux-gnu/libm.so.6
           0x00007ffff7b6e068 - 0x00007ffff7b6e308 is .rela.plt in /lib/x86_64-linux-gnu/libm.so.6
           0x00007ffff7b6f000 - 0x00007ffff7b6f01b is .init in /lib/x86_64-linux-gnu/libm.so.6
           0x00007ffff7b6f020 - 0x00007ffff7b6f1f0 is .plt in /lib/x86_64-linux-gnu/libm.so.6
           0x00007ffff7b6f1f0 - 0x00007ffff7b6f200 is .plt.got in /lib/x86_64-linux-gnu/libm.so.6
           0x00007ffff7b6f200 - 0x00007ffff7b6f3c0 is .plt.sec in /lib/x86_64-linux-gnu/libm.so.6
           0x00007ffff7b6f3c0 - 0x00007ffff7c15fa8 is .text in /lib/x86_64-linux-gnu/libm.so.6
           0x00007ffff7c15fa8 - 0x00007ffff7c15fb5 is .fini in /lib/x86_64-linux-gnu/libm.so.6
           0x00007ffff7c16000 - 0x00007ffff7ca18d4 is .rodata in /lib/x86_64-linux-gnu/libm.so.6
           0x00007ffff7ca18d4 - 0x00007ffff7ca18d5 is .stapsdt.base in /lib/x86_64-linux-gnu/libm.so.6
           0x00007ffff7ca18d8 - 0x00007ffff7ca353c is .eh_frame_hdr in /lib/x86_64-linux-gnu/libm.so.6
           0x00007ffff7ca3540 - 0x00007ffff7cac9a4 is .eh_frame in /lib/x86_64-linux-gnu/libm.so.6
           0x00007ffff7cac9a8 - 0x00007ffff7caeb14 is .hash in /lib/x86_64-linux-gnu/libm.so.6
           0x00007ffff7cafd80 - 0x00007ffff7cafd88 is .init_array in /lib/x86_64-linux-gnu/libm.so.6
           0x00007ffff7cafd88 - 0x00007ffff7cafd90 is .fini_array in /lib/x86_64-linux-gnu/libm.so.6
           0x00007ffff7cafd90 - 0x00007ffff7caffb0 is .dynamic in /lib/x86_64-linux-gnu/libm.so.6
           0x00007ffff7caffb0 - 0x00007ffff7cb0000 is .got in /lib/x86_64-linux-gnu/libm.so.6
           0x00007ffff7cb0000 - 0x00007ffff7cb00f8 is .got.plt in /lib/x86_64-linux-gnu/libm.so.6
           0x00007ffff7cb00f8 - 0x00007ffff7cb0104 is .data in /lib/x86_64-linux-gnu/libm.so.6
           0x00007ffff7cb0104 - 0x00007ffff7cb0110 is .bss in /lib/x86_64-linux-gnu/libm.so.6
           0x00007ffff7b3f318 - 0x00007ffff7b3f338 is .note.gnu.property in /lib/x86_64-linux-gnu/libpthread.so.0
           0x00007ffff7b3f338 - 0x00007ffff7b3f35c is .note.gnu.build-id in /lib/x86_64-linux-gnu/libpthread.so.0
           0x00007ffff7b3f35c - 0x00007ffff7b3f37c is .note.ABI-tag in /lib/x86_64-linux-gnu/libpthread.so.0
           0x00007ffff7b3f380 - 0x00007ffff7b400ac is .gnu.hash in /lib/x86_64-linux-gnu/libpthread.so.0
           0x00007ffff7b400b0 - 0x00007ffff7b42288 is .dynsym in /lib/x86_64-linux-gnu/libpthread.so.0
           0x00007ffff7b42288 - 0x00007ffff7b43799 is .dynstr in /lib/x86_64-linux-gnu/libpthread.so.0
           0x00007ffff7b4379a - 0x00007ffff7b43a6c is .gnu.version in /lib/x86_64-linux-gnu/libpthread.so.0
           0x00007ffff7b43a70 - 0x00007ffff7b43c58 is .gnu.version_d in /lib/x86_64-linux-gnu/libpthread.so.0
           0x00007ffff7b43c58 - 0x00007ffff7b43cf8 is .gnu.version_r in /lib/x86_64-linux-gnu/libpthread.so.0
           0x00007ffff7b43cf8 - 0x00007ffff7b442b0 is .rela.dyn in /lib/x86_64-linux-gnu/libpthread.so.0
           0x00007ffff7b442b0 - 0x00007ffff7b44aa8 is .rela.plt in /lib/x86_64-linux-gnu/libpthread.so.0
           0x00007ffff7b45000 - 0x00007ffff7b45012 is .init in /lib/x86_64-linux-gnu/libpthread.so.0
           0x00007ffff7b45020 - 0x00007ffff7b45580 is .plt in /lib/x86_64-linux-gnu/libpthread.so.0
           0x00007ffff7b45580 - 0x00007ffff7b45590 is .plt.got in /lib/x86_64-linux-gnu/libpthread.so.0
           0x00007ffff7b45590 - 0x00007ffff7b45ae0 is .plt.sec in /lib/x86_64-linux-gnu/libpthread.so.0
           0x00007ffff7b45ae0 - 0x00007ffff7b55535 is .text in /lib/x86_64-linux-gnu/libpthread.so.0
           0x00007ffff7b55538 - 0x00007ffff7b55545 is .fini in /lib/x86_64-linux-gnu/libpthread.so.0
           0x00007ffff7b56000 - 0x00007ffff7b57206 is .rodata in /lib/x86_64-linux-gnu/libpthread.so.0
           0x00007ffff7b57210 - 0x00007ffff7b5722c is .interp in /lib/x86_64-linux-gnu/libpthread.so.0
           0x00007ffff7b5722c - 0x00007ffff7b5722d is .stapsdt.base in /lib/x86_64-linux-gnu/libpthread.so.0
           0x00007ffff7b57230 - 0x00007ffff7b57b74 is .eh_frame_hdr in /lib/x86_64-linux-gnu/libpthread.so.0
           0x00007ffff7b57b78 - 0x00007ffff7b5a748 is .eh_frame in /lib/x86_64-linux-gnu/libpthread.so.0
           0x00007ffff7b5a748 - 0x00007ffff7b5b7bc is .hash in /lib/x86_64-linux-gnu/libpthread.so.0
           0x00007ffff7b5cc08 - 0x00007ffff7b5cc18 is .init_array in /lib/x86_64-linux-gnu/libpthread.so.0
           0x00007ffff7b5cc18 - 0x00007ffff7b5cc20 is .fini_array in /lib/x86_64-linux-gnu/libpthread.so.0
           0x00007ffff7b5cc20 - 0x00007ffff7b5cd70 is .data.rel.ro in /lib/x86_64-linux-gnu/libpthread.so.0
           0x00007ffff7b5cd70 - 0x00007ffff7b5cfa0 is .dynamic in /lib/x86_64-linux-gnu/libpthread.so.0
           0x00007ffff7b5cfa0 - 0x00007ffff7b5cff8 is .got in /lib/x86_64-linux-gnu/libpthread.so.0
           0x00007ffff7b5d000 - 0x00007ffff7b5d2c0 is .got.plt in /lib/x86_64-linux-gnu/libpthread.so.0
           0x00007ffff7b5d2c0 - 0x00007ffff7b5d310 is .data in /lib/x86_64-linux-gnu/libpthread.so.0
           0x00007ffff7b5d320 - 0x00007ffff7b61478 is .bss in /lib/x86_64-linux-gnu/libpthread.so.0
           0x00007ffff794d350 - 0x00007ffff794d370 is .note.gnu.property in /lib/x86_64-linux-gnu/libc.so.6
           0x00007ffff794d370 - 0x00007ffff794d394 is .note.gnu.build-id in /lib/x86_64-linux-gnu/libc.so.6
           0x00007ffff794d394 - 0x00007ffff794d3b4 is .note.ABI-tag in /lib/x86_64-linux-gnu/libc.so.6
           0x00007ffff794d3b8 - 0x00007ffff795106c is .gnu.hash in /lib/x86_64-linux-gnu/libc.so.6
           0x00007ffff7951070 - 0x00007ffff795eea0 is .dynsym in /lib/x86_64-linux-gnu/libc.so.6
           0x00007ffff795eea0 - 0x00007ffff7964f61 is .dynstr in /lib/x86_64-linux-gnu/libc.so.6
           0x00007ffff7964f62 - 0x00007ffff79661e6 is .gnu.version in /lib/x86_64-linux-gnu/libc.so.6
           0x00007ffff79661e8 - 0x00007ffff7966658 is .gnu.version_d in /lib/x86_64-linux-gnu/libc.so.6
           0x00007ffff7966658 - 0x00007ffff7966688 is .gnu.version_r in /lib/x86_64-linux-gnu/libc.so.6
           0x00007ffff7966688 - 0x00007ffff796e080 is .rela.dyn in /lib/x86_64-linux-gnu/libc.so.6
           0x00007ffff796e080 - 0x00007ffff796e4e8 is .rela.plt in /lib/x86_64-linux-gnu/libc.so.6
           0x00007ffff796f000 - 0x00007ffff796f300 is .plt in /lib/x86_64-linux-gnu/libc.so.6
           0x00007ffff796f300 - 0x00007ffff796f340 is .plt.got in /lib/x86_64-linux-gnu/libc.so.6
           0x00007ffff796f340 - 0x00007ffff796f630 is .plt.sec in /lib/x86_64-linux-gnu/libc.so.6
           0x00007ffff796f630 - 0x00007ffff7ae44bd is .text in /lib/x86_64-linux-gnu/libc.so.6
           0x00007ffff7ae44c0 - 0x00007ffff7ae6864 is __libc_freeres_fn in /lib/x86_64-linux-gnu/libc.so.6
           0x00007ffff7ae7000 - 0x00007ffff7b0b698 is .rodata in /lib/x86_64-linux-gnu/libc.so.6
           0x00007ffff7b0b698 - 0x00007ffff7b0b699 is .stapsdt.base in /lib/x86_64-linux-gnu/libc.so.6
           0x00007ffff7b0b6a0 - 0x00007ffff7b0b6bc is .interp in /lib/x86_64-linux-gnu/libc.so.6
           0x00007ffff7b0b6bc - 0x00007ffff7b11590 is .eh_frame_hdr in /lib/x86_64-linux-gnu/libc.so.6
           0x00007ffff7b11590 - 0x00007ffff7b309a8 is .eh_frame in /lib/x86_64-linux-gnu/libc.so.6
           0x00007ffff7b309a8 - 0x00007ffff7b30dcd is .gcc_except_table in /lib/x86_64-linux-gnu/libc.so.6
           0x00007ffff7b30dd0 - 0x00007ffff7b342c4 is .hash in /lib/x86_64-linux-gnu/libc.so.6
           0x00007ffff7b35788 - 0x00007ffff7b35798 is .tdata in /lib/x86_64-linux-gnu/libc.so.6
           0x00007ffff7b35798 - 0x00007ffff7b35818 is .tbss in /lib/x86_64-linux-gnu/libc.so.6
           0x00007ffff7b35798 - 0x00007ffff7b357a8 is .init_array in /lib/x86_64-linux-gnu/libc.so.6
           0x00007ffff7b357a8 - 0x00007ffff7b35898 is __libc_subfreeres in /lib/x86_64-linux-gnu/libc.so.6
           0x00007ffff7b35898 - 0x00007ffff7b358a0 is __libc_atexit in /lib/x86_64-linux-gnu/libc.so.6
           0x00007ffff7b358a0 - 0x00007ffff7b36608 is __libc_IO_vtables in /lib/x86_64-linux-gnu/libc.so.6
           0x00007ffff7b36620 - 0x00007ffff7b38b80 is .data.rel.ro in /lib/x86_64-linux-gnu/libc.so.6
           0x00007ffff7b38b80 - 0x00007ffff7b38d60 is .dynamic in /lib/x86_64-linux-gnu/libc.so.6
           0x00007ffff7b38d60 - 0x00007ffff7b38ff8 is .got in /lib/x86_64-linux-gnu/libc.so.6
           0x00007ffff7b39000 - 0x00007ffff7b39190 is .got.plt in /lib/x86_64-linux-gnu/libc.so.6
           0x00007ffff7b391a0 - 0x00007ffff7b3a7a0 is .data in /lib/x86_64-linux-gnu/libc.so.6
           0x00007ffff7b3a7a0 - 0x00007ffff7b3e660 is .bss in /lib/x86_64-linux-gnu/libc.so.6
           0x00007ffff79452a8 - 0x00007ffff79452c8 is .note.gnu.property in /lib/x86_64-linux-gnu/libdl.so.2
           0x00007ffff79452c8 - 0x00007ffff79452ec is .note.gnu.build-id in /lib/x86_64-linux-gnu/libdl.so.2
           0x00007ffff79452ec - 0x00007ffff794530c is .note.ABI-tag in /lib/x86_64-linux-gnu/libdl.so.2
           0x00007ffff7945310 - 0x00007ffff79453d8 is .gnu.hash in /lib/x86_64-linux-gnu/libdl.so.2
           0x00007ffff79453d8 - 0x00007ffff79457e0 is .dynsym in /lib/x86_64-linux-gnu/libdl.so.2
           0x00007ffff79457e0 - 0x00007ffff7945a19 is .dynstr in /lib/x86_64-linux-gnu/libdl.so.2
           0x00007ffff7945a1a - 0x00007ffff7945a70 is .gnu.version in /lib/x86_64-linux-gnu/libdl.so.2
           0x00007ffff7945a70 - 0x00007ffff7945b14 is .gnu.version_d in /lib/x86_64-linux-gnu/libdl.so.2
           0x00007ffff7945b18 - 0x00007ffff7945b78 is .gnu.version_r in /lib/x86_64-linux-gnu/libdl.so.2
           0x00007ffff7945b78 - 0x00007ffff7945d10 is .rela.dyn in /lib/x86_64-linux-gnu/libdl.so.2
           0x00007ffff7945d10 - 0x00007ffff7945e48 is .rela.plt in /lib/x86_64-linux-gnu/libdl.so.2
           0x00007ffff7946000 - 0x00007ffff794601b is .init in /lib/x86_64-linux-gnu/libdl.so.2
           0x00007ffff7946020 - 0x00007ffff7946100 is .plt in /lib/x86_64-linux-gnu/libdl.so.2
           0x00007ffff7946100 - 0x00007ffff7946150 is .plt.got in /lib/x86_64-linux-gnu/libdl.so.2
           0x00007ffff7946150 - 0x00007ffff7946220 is .plt.sec in /lib/x86_64-linux-gnu/libdl.so.2
           0x00007ffff7946220 - 0x00007ffff7947179 is .text in /lib/x86_64-linux-gnu/libdl.so.2
           0x00007ffff794717c - 0x00007ffff7947189 is .fini in /lib/x86_64-linux-gnu/libdl.so.2
           0x00007ffff7948000 - 0x00007ffff79480a3 is .rodata in /lib/x86_64-linux-gnu/libdl.so.2
           0x00007ffff79480a4 - 0x00007ffff7948180 is .eh_frame_hdr in /lib/x86_64-linux-gnu/libdl.so.2
           0x00007ffff7948180 - 0x00007ffff7948508 is .eh_frame in /lib/x86_64-linux-gnu/libdl.so.2
           0x00007ffff7948508 - 0x00007ffff79486c0 is .hash in /lib/x86_64-linux-gnu/libdl.so.2
           0x00007ffff7949d70 - 0x00007ffff7949d80 is .init_array in /lib/x86_64-linux-gnu/libdl.so.2
           0x00007ffff7949d80 - 0x00007ffff7949d90 is .fini_array in /lib/x86_64-linux-gnu/libdl.so.2
           0x00007ffff7949d90 - 0x00007ffff7949fa0 is .dynamic in /lib/x86_64-linux-gnu/libdl.so.2
           0x00007ffff7949fa0 - 0x00007ffff794a000 is .got in /lib/x86_64-linux-gnu/libdl.so.2
           0x00007ffff794a000 - 0x00007ffff794a080 is .got.plt in /lib/x86_64-linux-gnu/libdl.so.2
           0x00007ffff794a080 - 0x00007ffff794a088 is .data in /lib/x86_64-linux-gnu/libdl.so.2
           0x00007ffff794a0a0 - 0x00007ffff794a110 is .bss in /lib/x86_64-linux-gnu/libdl.so.2

   (ChatDBG gdb) code libyara/atoms.c:1
   1 /*
   2 Copyright (c) 2013-2018. The YARA Authors. All Rights Reserved.
   3 
   4 Redistribution and use in source and binary forms, with or without modification,

   
   (Message) Let me look for the test file to understand what it's testing:
   (Message) Let me look for the test file to understand what it's testing:
   (ChatDBG gdb) file
   
   (Message) Let me search for the test function in the atoms.c file:
   (Message) Let me search for the test function in the atoms.c file:
   (ChatDBG gdb) break assert_hex_atoms
   /opt/chatdbg-venv/lib/python3.11/site-packages/pydantic/main.py:475: UserWarning: Pydantic serializer warnings:
     PydanticSerializationUnexpectedValue(Expected 5 fields but got 4: Expected `Message` - serialized value may not be as expected [field_name='choices', input_value=Message(content='Let me s...')], function_call=None), input_type=Message])
     PydanticSerializationUnexpectedValue(Expected `StreamingChoices` - serialized value may not be as expected [field_name='choices', input_value=Choices(finish_reason='st...)], function_call=None)), input_type=Choices])
     return self.__pydantic_serializer__.to_python(
   No symbol table is loaded.  Use the "file" command.
   Breakpoint 6 (assert_hex_atoms) pending.

   (ChatDBG gdb) break test_atom_choose
   No symbol table is loaded.  Use the "file" command.
   Breakpoint 7 (test_atom_choose) pending.

   (Message)
   (ChatDBG gdb) file /work/test-atoms
   (Message)
   (ChatDBG gdb) run
   [Thread debugging using libthread_db enabled]
   Using host libthread_db library "/lib/x86_64-linux-gnu/libthread_db.so.1".

   (Message)
   (ChatDBG gdb) continue
   /opt/chatdbg-venv/lib/python3.11/site-packages/pydantic/main.py:475: UserWarning: Pydantic serializer warnings:
     PydanticSerializationUnexpectedValue(Expected 5 fields but got 4: Expected `Message` - serialized value may not be as expected [field_name='choices', input_value=Message(content='', role=...')], function_call=None), input_type=Message])
     PydanticSerializationUnexpectedValue(Expected `StreamingChoices` - serialized value may not be as expected [field_name='choices', input_value=Choices(finish_reason='st...)], function_call=None)), input_type=Choices])
     return self.__pydantic_serializer__.to_python(

   
   (Message) Let me get the
Breakpoint 7, 0x0000555555559920 in test_atom_choose ()

Breakpoint 6, 0x000055555555a890 in assert_hex_atoms ()
 backtrace:
   (Message) Let me get the backtrace:
   (ChatDBG gdb) bt
   /opt/chatdbg-venv/lib/python3.11/site-packages/pydantic/main.py:475: UserWarning: Pydantic serializer warnings:
     PydanticSerializationUnexpectedValue(Expected 5 fields but got 4: Expected `Message` - serialized value may not be as expected [field_name='choices', input_value=Message(content='Let me g...')], function_call=None), input_type=Message])
     PydanticSerializationUnexpectedValue(Expected `StreamingChoices` - serialized value may not be as expected [field_name='choices', input_value=Choices(finish_reason='st...)], function_call=None)), input_type=Choices])
     return self.__pydantic_serializer__.to_python(
   #0  0x000055555555a890 in assert_hex_atoms ()
   #1  0x0000555555559b33 in test_atom_choose ()
   #2  0x0000555555558f12 in main ()

   
   (Message) Good! Now let me examine the assert_hex_atoms function. Let me find
   where it is:
   (Message) Good! Now let me examine the assert_hex_atoms function. Let me find
   where it is:
   (ChatDBG gdb) info line assert_hex_atoms
   No line number information available for address 0x55555555a890 <assert_hex_atoms>

   
   (Message) Let me look at the atoms.c file and search for these functions:
   (Message) Let me look at the atoms.c file and search for these functions:
   (ChatDBG gdb) disassemble assert_hex_atoms
   Dump of assembler code for function assert_hex_atoms:
   => 0x000055555555a890 <+0>:     /opt/chatdbg-venv/lib/python3.11/site-packages/pydantic/main.py:475: UserWarning: Pydantic serializer warnings:
     PydanticSerializationUnexpectedValue(Expected 5 fields but got 4: Expected `Message` - serialized value may not be as expected [field_name='choices', input_value=Message(content='Let me l...')], function_call=None), input_type=Message])
     PydanticSerializationUnexpectedValue(Expected `StreamingChoices` - serialized value may not be as expected [field_name='choices', input_value=Choices(finish_reason='to...)], function_call=None)), input_type=Choices])
     return self.__pydantic_serializer__.to_python(
   /opt/chatdbg-venv/lib/python3.11/site-packages/pydantic/main.py:475: UserWarning: Pydantic serializer warnings:
     PydanticSerializationUnexpectedValue(Expected 5 fields but got 4: Expected `Message` - serialized value may not be as expected [field_name='choices', input_value=Message(content='Let me l...')], function_call=None), input_type=Message])
     PydanticSerializationUnexpectedValue(Expected `StreamingChoices` - serialized value may not be as expected [field_name='choices', input_value=Choices(finish_reason='st...)], function_call=None)), input_type=Choices])
     return self.__pydantic_serializer__.to_python(
   endbr64
      0x000055555555a894 <+4>:     push   %r14
      0x000055555555a896 <+6>:     push   %r13
      0x000055555555a898 <+8>:     mov    %rdx,%r13
      0x000055555555a89b <+11>:    push   %r12
      0x000055555555a89d <+13>:    push   %rbp
      0x000055555555a89e <+14>:    mov    %esi,%ebp
      0x000055555555a8a0 <+16>:    push   %rbx
      0x000055555555a8a1 <+17>:    sub    $0x1d0,%rsp
      0x000055555555a8a8 <+24>:    mov    %fs:0x28,%rax
      0x000055555555a8b1 <+33>:    mov    %rax,0x1c8(%rsp)
      0x000055555555a8b9 <+41>:    xor    %eax,%eax
      0x000055555555a8bb <+43>:    lea    0x40(%rsp),%rdx
      0x000055555555a8c0 <+48>:    lea    0x10(%rsp),%rsi
      0x000055555555a8c5 <+53>:    call   0x555555565cd0 <yr_re_parse_hex>
      0x000055555555a8ca <+58>:    lea    0x49f(%rip),%rax        # 0x55555555ad70 <yr_atoms_heuristic_quality>
      0x000055555555a8d1 <+65>:    mov    0x10(%rsp),%rsi
      0x000055555555a8d6 <+70>:    lea    0x18(%rsp),%rcx
      0x000055555555a8db <+75>:    lea    0x20(%rsp),%rdi
      0x000055555555a8e0 <+80>:    lea    0xc(%rsp),%r8
      0x000055555555a8e5 <+85>:    xor    %edx,%edx
      0x000055555555a8e7 <+87>:    mov    %rax,0x20(%rsp)
      0x000055555555a8ec <+92>:    call   0x55555555bbc0 <yr_atoms_extract_from_re>
      0x000055555555a8f1 <+97>:    mov    0x18(%rsp),%rbx
      0x000055555555a8f6 <+102>:   test   %rbx,%rbx
      0x000055555555a8f9 <+105>:   je     0x55555555a9b0 <assert_hex_atoms+288>
      0x000055555555a8ff <+111>:   test   %ebp,%ebp
      0x000055555555a901 <+113>:   je     0x55555555a950 <assert_hex_atoms+192>
      0x000055555555a903 <+115>:   lea    -0x1(%rbp),%eax
      0x000055555555a906 <+118>:   lea    0x1(%r13),%r12
      0x000055555555a90a <+122>:   mov    %rbx,%rbp
      0x000055555555a90d <+125>:   lea    (%rax,%rax,4),%rax
      0x000055555555a911 <+129>:   lea    0x6(%r13,%rax,1),%r14
      0x000055555555a916 <+134>:   jmp    0x55555555a945 <assert_hex_atoms+181>
      0x000055555555a918 <+136>:   nopl   0x0(%rax,%rax,1)
      0x000055555555a920 <+144>:   lea    0x1(%rbp),%rdi
      0x000055555555a924 <+148>:   mov    %r12,%rsi
      0x000055555555a927 <+151>:   call   0x555555558cc0 <memcmp@plt>
      0x000055555555a92c <+156>:   mov    %eax,%r13d
      0x000055555555a92f <+159>:   test   %eax,%eax
      0x000055555555a931 <+161>:   jne    0x55555555a950 <assert_hex_atoms+192>
      0x000055555555a933 <+163>:   mov    0x20(%rbp),%rbp
      0x000055555555a937 <+167>:   test   %rbp,%rbp
      0x000055555555a93a <+170>:   je     0x55555555a960 <assert_hex_atoms+208>
      0x000055555555a93c <+172>:   add    $0x5,%r12
      0x000055555555a940 <+176>:   cmp    %r14,%r12
      0x000055555555a943 <+179>:   je     0x55555555a950 <assert_hex_atoms+192>
      0x000055555555a945 <+181>:   movzbl 0x0(%rbp),%edx
      0x000055555555a949 <+185>:   cmp    -0x1(%r12),%dl
      0x000055555555a94e <+190>:   je     0x55555555a920 <assert_hex_atoms+144>
      0x000055555555a950 <+192>:   mov    $0x1,%r13d
      0x000055555555a956 <+198>:   cs nopw 0x0(%rax,%rax,1)
      0x000055555555a960 <+208>:   mov    %rbx,%rdi
      0x000055555555a963 <+211>:   mov    0x20(%rbx),%rbx
      0x000055555555a967 <+215>:   call   0x555555562960 <yr_free>
      0x000055555555a96c <+220>:   test   %rbx,%rbx
      0x000055555555a96f <+223>:   jne    0x55555555a960 <assert_hex_atoms+208>
      0x000055555555a971 <+225>:   mov    0x10(%rsp),%rdi
      0x000055555555a976 <+230>:   test   %rdi,%rdi
      0x000055555555a979 <+233>:   je     0x55555555a980 <assert_hex_atoms+240>
      0x000055555555a97b <+235>:   call   0x555555565c60 <yr_re_ast_destroy>
      0x000055555555a980 <+240>:   test   %r13d,%r13d
      0x000055555555a983 <+243>:   jne    0x55555555a9c6 <assert_hex_atoms+310>
      0x000055555555a985 <+245>:   mov    0x1c8(%rsp),%rax
      0x000055555555a98d <+253>:   xor    %fs:0x28,%rax
      0x000055555555a996 <+262>:   jne    0x55555555a9c1 <assert_hex_atoms+305>
      0x000055555555a998 <+264>:   add    $0x1d0,%rsp
      0x000055555555a99f <+271>:   pop    %rbx
      0x000055555555a9a0 <+272>:   pop    %rbp
      0x000055555555a9a1 <+273>:   pop    %r12
      0x000055555555a9a3 <+275>:   pop    %r13
      0x000055555555a9a5 <+277>:   pop    %r14
      0x000055555555a9a7 <+279>:   ret
      0x000055555555a9a8 <+280>:   nopl   0x0(%rax,%rax,1)
      0x000055555555a9b0 <+288>:   mov    0x10(%rsp),%rdi
      0x000055555555a9b5 <+293>:   test   %rdi,%rdi
      0x000055555555a9b8 <+296>:   je     0x55555555a985 <assert_hex_atoms+245>
      0x000055555555a9ba <+298>:   call   0x555555565c60 <yr_re_ast_destroy>
      0x000055555555a9bf <+303>:   jmp    0x55555555a985 <assert_hex_atoms+245>
      0x000055555555a9c1 <+305>:   call   0x555555558c40 <__stack_chk_fail@plt>
      0x000055555555a9c6 <+310>:   mov    $0x1,%edi
      0x000055555555a9cb <+315>:   call   0x5555555588b0 <exit@plt>
   End of assembler dump.

   
   (Message) The program is calling exit(1) at the end of assert_hex_atoms. Let
   me search for where assert_hex_atoms is defined. Let me look at the atoms.c
   file in detail. First, let me find what line this is in:
   (Message) The program is calling exit(1) at the end of assert_hex_atoms. Let
   me search for where assert_hex_atoms is defined. Let me look at the atoms.c
   file in detail. First, let me find what line this is in:
   (ChatDBG gdb) info functions assert_hex_atoms
   All functions matching regular expression "assert_hex_atoms":
   
   Non-debugging symbols:
   0x000055555555a890  assert_hex_atoms

   
   (Message) Let me search the atoms.c file to find where it's defined by
   viewing more of the file:
   (Message) Let me search the atoms.c file to find where it's defined by
   viewing more of the file:
   (ChatDBG gdb) code libyara/atoms.c:100
   /opt/chatdbg-venv/lib/python3.11/site-packages/pydantic/main.py:475: UserWarning: Pydantic serializer warnings:
     PydanticSerializationUnexpectedValue(Expected 5 fields but got 4: Expected `Message` - serialized value may not be as expected [field_name='choices', input_value=Message(content="Let me s...')], function_call=None), input_type=Message])
     PydanticSerializationUnexpectedValue(Expected `StreamingChoices` - serialized value may not be as expected [field_name='choices', input_value=Choices(finish_reason='st...)], function_call=None)), input_type=Choices])
     return self.__pydantic_serializer__.to_python(
    94 //
    95 // yr_atoms_heuristic_quality
    96 //
    97 // Returns a numeric value indicating the quality of an atom. The quality
    98 // depends on some characteristics of the atom, including its length, number
    99 // of very common bytes like 00 and FF and number of unique distinct bytes.
   100 // Atom 00 00 has a very low quality, because it's only two bytes long and
   101 // both bytes are zeroes. Atom 01 01 01 01 is better but still not optimal,
   102 // because the same byte is repeated. Atom 01 02 03 04 is an optimal one.
   103 //

   
   (Message) Let me search for test functions:
   (Message) Let me search for test functions:
   (ChatDBG gdb) info functions test_atom
   All functions matching regular expression "test_atom":
   
   Non-debugging symbols:
   0x0000555555559920  test_atom_choose

   
   (Message) Let me check what symbols are available in the binary:
   (Message) Let me check what symbols are available in the binary:
   (ChatDBG gdb) info functions assert
   /opt/chatdbg-venv/lib/python3.11/site-packages/pydantic/main.py:475: UserWarning: Pydantic serializer warnings:
     PydanticSerializationUnexpectedValue(Expected 5 fields but got 4: Expected `Message` - serialized value may not be as expected [field_name='choices', input_value=Message(content='Let me c...')], function_call=None), input_type=Message])
     PydanticSerializationUnexpectedValue(Expected `StreamingChoices` - serialized value may not be as expected [field_name='choices', input_value=Choices(finish_reason='to...)], function_call=None)), input_type=Choices])
     return self.__pydantic_serializer__.to_python(
   /opt/chatdbg-venv/lib/python3.11/site-packages/pydantic/main.py:475: UserWarning: Pydantic serializer warnings:
     PydanticSerializationUnexpectedValue(Expected 5 fields but got 4: Expected `Message` - serialized value may not be as expected [field_name='choices', input_value=Message(content='Let me c...')], function_call=None), input_type=Message])
     PydanticSerializationUnexpectedValue(Expected `StreamingChoices` - serialized value may not be as expected [field_name='choices', input_value=Choices(finish_reason='st...)], function_call=None)), input_type=Choices])
     return self.__pydantic_serializer__.to_python(
   All functions matching regular expression "assert":
   
   Non-debugging symbols:
   0x00005555555588d0  __assert_fail@plt
   0x000055555555a660  _assert_atoms
   0x000055555555a750  assert_re_atoms
   0x000055555555a890  assert_hex_atoms
   0x00007ffff7b6f270  __assert_fail@plt
   0x00007ffff7b45730  __assert_fail@plt
   0x00007ffff7980f90  __assert_fail
   0x00007ffff7980fe0  __assert_perror_fail
   0x00007ffff7981050  __assert
   0x00007ffff7a8ae50  __netlink_assert_response

   
   (Message) Now, let me look at the source code. Since the binary isn't built
   with debugging symbols, let me look at the source directly to find the test
   code:
/work/args.c
/work/libyara/ahocorasick.c
/work/libyara/arena.c
/work/libyara/atoms.c
/work/libyara/bitmask.c
/work/libyara/compiler.c
/work/libyara/endian.c
/work/libyara/exec.c
/work/libyara/exefiles.c
/work/libyara/filemap.c
/work/libyara/grammar.c
/work/libyara/hash.c
/work/libyara/hex_grammar.c
/work/libyara/hex_lexer.c
/work/libyara/lexer.c
/work/libyara/libyara.c
/work/libyara/mem.c
/work/libyara/modules/cuckoo.c
/work/libyara/modules/demo.c
/work/libyara/modules/dex.c
   (Message) Now, let me look at the source code. Since the binary isn't built
   with debugging symbols, let me look at the source directly to find the test
   code:
   (ChatDBG gdb) shell find /work -name "*.c" -type f | head -20
total 4408
drwxrwxrwx 1 root        root          4096 May  4 03:29 .
drwxr-xr-x 1 root        root          4096 May  4 20:55 ..
-rwxrwxrwx 1 root        root           165 Apr 26 17:35 .defects4cpp.json
drwxrwxrwx 1 root        root          4096 Apr 26 17:37 .deps
-rwxrwxrwx 1 root        root           129 Apr 26 17:35 .git
-rwxrwxrwx 1 root        root          1319 Apr 26 17:35 .gitignore
drwxrwxrwx 1 root        root          4096 Apr 26 17:37 .libs
-rwxrwxrwx 1 root        root          3303 Apr 26 17:35 .travis.yml
-rwxrwxrwx 1 root        root           563 Apr 26 17:35 AUTHORS
-rwxrwxrwx 1 root        root          1544 Apr 26 17:35 CONTRIBUTORS
-rwxrwxrwx 1 root        root          1493 Apr 26 17:35 COPYING
-rw-r--r-- 1 root        root             3 Apr 29 23:37 DPP_TEST_INDEX
-rw-r--r-- 1 defects4cpp defects4cpp  63989 Apr 26 17:35 Makefile
-rwxrwxrwx 1 root        root          2277 Apr 26 17:35 Makefile.am
-rw-r--r-- 1 defects4cpp defects4cpp  65120 Apr 26 17:35 Makefile.in
-rwxrwxrwx 1 root        root          5502 Apr 26 17:35 README.md
-rw-r--r-- 1 defects4cpp defects4cpp  44626 Apr 26 17:35 aclocal.m4
-rwxrwxrwx 1 root        root          1498 Apr 26 17:35 appveyor.yml
-rwxrwxrwx 1 root        root          6930 Apr 26 17:35 args.c
-rwxrwxrwx 1 root        root          3043 Apr 26 17:35 args.h
-rw-r--r-- 1 defects4cpp defects4cpp   6600 Apr 26 17:37 args.o
drwxrwxrwx 1 root        root          4096 Apr 26 17:35 autom4te.cache
-rwxrwxrwx 1 root        root            39 Apr 26 17:35 bootstrap.sh
drwxrwxrwx 1 root        root          4096 Apr 26 17:35 build-aux
-rwxrwxrwx 1 root        root            41 Apr 26 17:35 build.sh
-rwxrwxrwx 1 root        root          3258 Apr 26 17:35 common.h
-rw-r--r-- 1 defects4cpp defects4cpp 104346 Apr 26 17:35 config.log
-rwxr-xr-x 1 defects4cpp defects4cpp  55970 Apr 26 17:35 config.status
-rwxr-xr-x 1 defects4cpp defects4cpp 522438 Apr 26 17:35 configure
-rwxrwxrwx 1 root        root         10332 Apr 26 17:35 configure.ac
drwxrwxrwx 1 root        root          4096 Apr 26 17:35 dist
drwxrwxrwx 1 root        root          4096 Apr 26 17:35 docs
drwxrwxrwx 1 root        root          4096 Apr 26 17:35 extra
-rwxr-xr-x 1 defects4cpp defects4cpp 342313 Apr 26 17:35 libtool
drwxrwxrwx 1 root        root          4096 Apr 26 17:37 libyara
drwxrwxrwx 1 root        root          4096 Apr 26 17:35 m4
-rwxrwxrwx 1 root        root             6 Apr 26 17:35 sample.file
-rwxrwxrwx 1 root        root           142 Apr 26 17:35 sample.rules
-rwxr-xr-x 1 root        root         17056 Apr 26 17:37 test-alignment
-rw-r--r-- 1 root        root            37 May  4 03:29 test-alignment.log
-rw-r--r-- 1 root        root            82 May  4 03:29 test-alignment.trs
-rwxr-xr-x 1 root        root        383936 Apr 26 17:37 test-api
-rw-r--r-- 1 root        root            31 May  4 03:29 test-api.log
-rw-r--r-- 1 root        root            82 May  4 03:29 test-api.trs
-rwxr-xr-x 1 root        root        383360 Apr 26 17:37 test-atoms
-rw-r--r-- 1 root        root            33 May  4 03:29 test-atoms.log
-rw-r--r-- 1 root        root            84 May  4 03:29 test-atoms.trs
-rwxr-xr-x 1 root        root         17504 Apr 26 17:38 test-bitmask
-rw-r--r-- 1 root        root            35 May  4 03:29 test-bitmask.log
-rw-r--r-- 1 root        root            82 May  4 03:29 test-bitmask.trs
-rwxr-xr-x 1 root        root        407312 Apr 26 17:37 test-elf
-rw-r--r-- 1 root        root            31 May  4 03:29 test-elf.log
-rw-r--r-- 1 root        root            82 May  4 03:29 test-elf.trs
-rwxr-xr-x 1 root        root        384568 Apr 26 17:38 test-exception
-rw-r--r-- 1 root        root            43 May  4 03:29 test-exception.log
-rw-r--r-- 1 root        root            82 May  4 03:29 test-exception.trs
-rwxr-xr-x 1 root        root        375040 Apr 26 17:38 test-math
-rw-r--r-- 1 root        root            32 May  4 03:29 test-math.log
-rw-r--r-- 1 root        root            82 May  4 03:29 test-math.trs
-rwxr-xr-x 1 root        root        383320 Apr 26 17:37 test-pe
-rw-r--r-- 1 root        root            30 May  4 03:29 test-pe.log
-rw-r--r-- 1 root        root            82 May  4 03:29 test-pe.trs
-rwxr-xr-x 1 root        root        481768 Apr 26 17:37 test-rules
-rw-r--r-- 1 root        root            33 May  4 03:29 test-rules.log
-rw-r--r-- 1 root        root            82 May  4 03:29 test-rules.trs
-rwxr-xr-x 1 root        root        227672 Apr 26 17:38 test-stack
-rw-r--r-- 1 root        root            33 May  4 03:29 test-stack.log
-rw-r--r-- 1 root        root            82 May  4 03:29 test-stack.trs
-rw-r--r-- 1 root        root           277 May  4 03:29 test-suite.log
-rwxr-xr-x 1 root        root         16472 Apr 26 17:37 test-version
-rw-r--r-- 1 root        root            35 May  4 03:29 test-version.log
-rw-r--r-- 1 root        root            82 May  4 03:29 test-version.trs
drwxrwxrwx 1 root        root          4096 Apr 26 17:38 tests
-rwxrwxrwx 1 root        root          4690 Apr 26 17:35 threading.c
-rwxrwxrwx 1 root        root          2521 Apr 26 17:35 threading.h
-rw-r--r-- 1 defects4cpp defects4cpp   3616 Apr 26 17:37 threading.o
drwxrwxrwx 1 root        root          4096 Apr 26 17:35 windows
-rwxr-xr-x 1 defects4cpp defects4cpp   6278 Apr 26 17:37 yara
-rwxrwxrwx 1 root        root         30202 Apr 26 17:35 yara.c
-rwxrwxrwx 1 root        root          3525 Apr 26 17:35 yara.man
-rw-r--r-- 1 defects4cpp defects4cpp  36856 Apr 26 17:37 yara.o
-rwxr-xr-x 1 defects4cpp defects4cpp   6288 Apr 26 17:37 yarac
-rwxrwxrwx 1 root        root          6897 Apr 26 17:35 yarac.c
-rwxrwxrwx 1 root        root          1676 Apr 26 17:35 yarac.man
-rw-r--r-- 1 defects4cpp defects4cpp   9888 Apr 26 17:37 yarac.o
   (Message)
   (ChatDBG gdb) shell ls -la /work/
   
   (Message) Let me try finding the source code for the test functions directly.
   I need to find where assert_hex_atoms and test_atom_choose are defined in the
   source:
   (Message) Let me try finding the source code for the test functions directly.
   I need to find where assert_hex_atoms and test_atom_choose are defined in the
   source:
   (ChatDBG gdb) shell grep -n "assert_hex_atoms" /work/libyara/atoms.c
   
   (Message) Let me check what test files are available:
/work/test-atoms
/work/test-atoms.log
/work/test-atoms.trs
/work/tests/.deps/test-atoms.Po
/work/tests/test-atoms.c
/work/tests/test-atoms.o
   (Message) Let me check what test files are available:
   (ChatDBG gdb) shell find /work -name "*test*atoms*" -o -name "*atoms*test*"
   
   (Message) Let me look at the atoms.c source directly. Let me search for the
   word "assert_hex_atoms":
   (Message) Let me look at the atoms.c source directly. Let me search for the
   word "assert_hex_atoms":
   (ChatDBG gdb) code libyara/atoms.c:1000
    993   si.re_node = re_ast->root_node;
    994 
    995   // Leaf nodes are initially appended to the node passed in the appending_node,
    996   // argument which is the root ATOM_TREE_OR node that is empty at this point.
    997   si.new_appending_node = appending_node;
    998 
    999   FAIL_ON_ERROR_WITH_CLEANUP(
   1000       yr_stack_push(stack, (void*) &si),
   1001       yr_stack_destroy(stack));
   1002 
   1003   while (yr_stack_pop(stack, (void*) &si))

   
   (Message) Let me search for where the test is:
Binary file /work/test-atoms matches
/work/tests/test-atoms.c:void test_atom_choose()
/work/tests/test-atoms.c:  test_atom_choose();
Binary file /work/tests/test-atoms.o matches
   (Message) Let me search for where the test is:
   (ChatDBG gdb) shell grep -r "test_atom_choose" /work 2>/dev/null | head -5
   
   (Message) Let me check if there's a test file in the source:
/work/tests/test-atoms.c
   (Message) Let me check if there's a test file in the source:
   (ChatDBG gdb) shell find /work -name "*.c" | xargs grep -l "test_atom_choose" 2>/dev/null
   
   (Message) Let me check what files are actually in the workspace:
/work/args.c
/work/threading.c
/work/yara.c
/work/yarac.c
   (Message) Let me check what files are actually in the workspace:
   (ChatDBG gdb) shell ls /work/*.c 2>/dev/null || echo "No .c files in /work"
   
   (Message) Let me see if the tests are embedded in the binary. Let me look at
   the strings in the binary:
__assert_fail
tests/defects4cpp.lua
tests/test-atoms.c
tests
modules/tests.c
tests__unload
tests__declarations
SafeArrayAccessDSafeArrayGetElemSafeArrayPutElemDispGetIDsOfNameCreateStdDispatcGetActiveObject
test-atoms.c
tests.c
test_heuristic_quality
tests__declarations
__assert_fail@@GLIBC_2.2.5
assert_re_atoms
tests__finalize
tests__load
test_atom_choose
assert_hex_atoms
_assert_atoms
test_table_quality
   (Message) Let me see if the tests are embedded in the binary. Let me look at
   the strings in the binary:
   (ChatDBG gdb) shell strings /work/test-atoms | grep -i "assert\|test" | head -20
   
   (Message) Let me look at the binary and search for where the test is written.
   Let me view the stack trace more carefully - we're exiting with code 2. Let
   me check where exit is called:
00000000000048a0 <__isoc99_sscanf@plt>:
    48a0:	f3 0f 1e fa          	endbr64 
    48a4:	f2 ff 25 ed 03 05 00 	bnd jmpq *0x503ed(%rip)        # 54c98 <__isoc99_sscanf@GLIBC_2.7>
    48ab:	0f 1f 44 00 00       	nopl   0x0(%rax,%rax,1)

00000000000048b0 <exit@plt>:
    48b0:	f3 0f 1e fa          	endbr64 
    48b4:	f2 ff 25 e5 03 05 00 	bnd jmpq *0x503e5(%rip)        # 54ca0 <exit@GLIBC_2.2.5>
    48bb:	0f 1f 44 00 00       	nopl   0x0(%rax,%rax,1)

00000000000048c0 <OBJ_nid2ln@plt>:
--
    52fa:	48 8d 15 2f ae 03 00 	lea    0x3ae2f(%rip),%rdx        # 40130 <_IO_stdin_used+0x130>
    5301:	31 c0                	xor    %eax,%eax
    5303:	be 01 00 00 00       	mov    $0x1,%esi
    5308:	e8 43 f5 ff ff       	callq  4850 <__fprintf_chk@plt>
    530d:	bf 01 00 00 00       	mov    $0x1,%edi
    5312:	e8 99 f5 ff ff       	callq  48b0 <exit@plt>
    5317:	41 b8 48 00 00 00    	mov    $0x48,%r8d
    531d:	eb cd                	jmp    52ec <test_table_quality+0x2dc>
    531f:	e8 1c f9 ff ff       	callq  4c40 <__stack_chk_fail@plt>
    5324:	66 66 2e 0f 1f 84 00 	data16 nopw %cs:0x0(%rax,%rax,1)
    532b:	00 00 00 00 
--
    56c6:	48 8d 15 63 aa 03 00 	lea    0x3aa63(%rip),%rdx        # 40130 <_IO_stdin_used+0x130>
    56cd:	31 c0                	xor    %eax,%eax
    56cf:	be 01 00 00 00       	mov    $0x1,%esi
    56d4:	e8 77 f1 ff ff       	callq  4850 <__fprintf_chk@plt>
    56d9:	bf 01 00 00 00       	mov    $0x1,%edi
    56de:	e8 cd f1 ff ff       	callq  48b0 <exit@plt>
    56e3:	0f 1f 44 00 00       	nopl   0x0(%rax,%rax,1)
    56e8:	44 39 f3             	cmp    %r14d,%ebx
    56eb:	0f 8f 67 ff ff ff    	jg     5658 <test_heuristic_quality+0x328>
    56f1:	41 b8 08 01 00 00    	mov    $0x108,%r8d
    56f7:	eb bf                	jmp    56b8 <test_heuristic_quality+0x388>
--
    61ec:	31 c0                	xor    %eax,%eax
    61ee:	48 8d 15 93 a5 03 00 	lea    0x3a593(%rip),%rdx        # 40788 <_IO_stdin_used+0x788>
    61f5:	be 01 00 00 00       	mov    $0x1,%esi
    61fa:	e8 51 e6 ff ff       	callq  4850 <__fprintf_chk@plt>
    61ff:	bf 01 00 00 00       	mov    $0x1,%edi
    6204:	e8 a7 e6 ff ff       	callq  48b0 <exit@plt>
    6209:	48 8b 0d 50 f3 04 00 	mov    0x4f350(%rip),%rcx        # 55560 <stderr@@GLIBC_2.2.5>
    6210:	ba 19 00 00 00       	mov    $0x19,%edx
    6215:	be 01 00 00 00       	mov    $0x1,%esi
    621a:	48 8d 3d 48 a5 03 00 	lea    0x3a548(%rip),%rdi        # 40769 <_IO_stdin_used+0x769>
    6221:	e8 5a e5 ff ff       	callq  4780 <fwrite@plt>
    6226:	bf 01 00 00 00       	mov    $0x1,%edi
    622b:	e8 80 e6 ff ff       	callq  48b0 <exit@plt>
    6230:	e8 0b ea ff ff       	callq  4c40 <__stack_chk_fail@plt>
    6235:	66 66 2e 0f 1f 84 00 	data16 nopw %cs:0x0(%rax,%rax,1)
    623c:	00 00 00 00 

0000000000006240 <matches_string>:
--
    63ac:	31 c0                	xor    %eax,%eax
    63ae:	48 8d 15 d3 a3 03 00 	lea    0x3a3d3(%rip),%rdx        # 40788 <_IO_stdin_used+0x788>
    63b5:	be 01 00 00 00       	mov    $0x1,%esi
    63ba:	e8 91 e4 ff ff       	callq  4850 <__fprintf_chk@plt>
    63bf:	bf 01 00 00 00       	mov    $0x1,%edi
    63c4:	e8 e7 e4 ff ff       	callq  48b0 <exit@plt>
    63c9:	48 8b 0d 90 f1 04 00 	mov    0x4f190(%rip),%rcx        # 55560 <stderr@@GLIBC_2.2.5>
    63d0:	ba 19 00 00 00       	mov    $0x19,%edx
    63d5:	be 01 00 00 00       	mov    $0x1,%esi
    63da:	48 8d 3d 88 a3 03 00 	lea    0x3a388(%rip),%rdi        # 40769 <_IO_stdin_used+0x769>
    63e1:	e8 9a e3 ff ff       	callq  4780 <fwrite@plt>
    63e6:	bf 01 00 00 00       	mov    $0x1,%edi
    63eb:	e8 c0 e4 ff ff       	callq  48b0 <exit@plt>
    63f0:	e8 4b e8 ff ff       	callq  4c40 <__stack_chk_fail@plt>
    63f5:	66 66 2e 0f 1f 84 00 	data16 nopw %cs:0x0(%rax,%rax,1)
    63fc:	00 00 00 00 

0000000000006400 <capture_string>:
--
    655c:	31 c0                	xor    %eax,%eax
    655e:	48 8d 15 23 a2 03 00 	lea    0x3a223(%rip),%rdx        # 40788 <_IO_stdin_used+0x788>
    6565:	be 01 00 00 00       	mov    $0x1,%esi
    656a:	e8 e1 e2 ff ff       	callq  4850 <__fprintf_chk@plt>
    656f:	bf 01 00 00 00       	mov    $0x1,%edi
    6574:	e8 37 e3 ff ff       	callq  48b0 <exit@plt>
    6579:	48 8b 0d e0 ef 04 00 	mov    0x4efe0(%rip),%rcx        # 55560 <stderr@@GLIBC_2.2.5>
    6580:	ba 19 00 00 00       	mov    $0x19,%edx
    6585:	be 01 00 00 00       	mov    $0x1,%esi
    658a:	48 8d 3d d8 a1 03 00 	lea    0x3a1d8(%rip),%rdi        # 40769 <_IO_stdin_used+0x769>
    6591:	e8 ea e1 ff ff       	callq  4780 <fwrite@plt>
    6596:	bf 01 00 00 00       	mov    $0x1,%edi
    659b:	e8 10 e3 ff ff       	callq  48b0 <exit@plt>
    65a0:	e8 9b e6 ff ff       	callq  4c40 <__stack_chk_fail@plt>
    65a5:	66 66 2e 0f 1f 84 00 	data16 nopw %cs:0x0(%rax,%rax,1)
    65ac:	00 00 00 00 

00000000000065b0 <read_file>:
--
    6878:	74 cb                	je     6845 <assert_re_atoms+0xf5>
    687a:	e8 e1 b3 00 00       	callq  11c60 <yr_re_ast_destroy>
    687f:	eb c4                	jmp    6845 <assert_re_atoms+0xf5>
    6881:	e8 ba e3 ff ff       	callq  4c40 <__stack_chk_fail@plt>
    6886:	bf 01 00 00 00       	mov    $0x1,%edi
    688b:	e8 20 e0 ff ff       	callq  48b0 <exit@plt>

0000000000006890 <assert_hex_atoms>:
    6890:	f3 0f 1e fa          	endbr64 
    6894:	41 56                	push   %r14
    6896:	41 55                	push   %r13
--
    69b8:	74 cb                	je     6985 <assert_hex_atoms+0xf5>
    69ba:	e8 a1 b2 00 00       	callq  11c60 <yr_re_ast_destroy>
    69bf:	eb c4                	jmp    6985 <assert_hex_atoms+0xf5>
    69c1:	e8 7a e2 ff ff       	callq  4c40 <__stack_chk_fail@plt>
    69c6:	bf 01 00 00 00       	mov    $0x1,%edi
    69cb:	e8 e0 de ff ff       	callq  48b0 <exit@plt>

00000000000069d0 <_yr_atoms_tree_node_destroy>:
    69d0:	48 85 ff             	test   %rdi,%rdi
    69d3:	74 5b                	je     6a30 <_yr_atoms_tree_node_destroy+0x60>
    69d5:	55                   	push   %rbp
--
   151c0:	48 83 ec 08          	sub    $0x8,%rsp
   151c4:	48 89 f9             	mov    %rdi,%rcx
   151c7:	48 8b 3d 92 03 04 00 	mov    0x40392(%rip),%rdi        # 55560 <stderr@@GLIBC_2.2.5>
   151ce:	e8 7d f6 fe ff       	callq  4850 <__fprintf_chk@plt>
   151d3:	bf 02 00 00 00       	mov    $0x2,%edi
   151d8:	e8 d3 f6 fe ff       	callq  48b0 <exit@plt>
   151dd:	0f 1f 00             	nopl   (%rax)

00000000000151e0 <re_yyerror.part.0>:
   151e0:	c7 47 24 09 00 00 00 	movl   $0x9,0x24(%rdi)
   151e7:	ba 00 01 00 00       	mov    $0x100,%edx
   (Message) Let me look at the binary and search for where the test is written.
   Let me view the stack trace more carefully - we're exiting with code 2. Let
   me check where exit is called:
   (ChatDBG gdb) shell objdump -d /work/test-atoms | grep -A5 -B5 "exit@plt"
   
   (Message) Let me try a different approach. Let me run the program and step
   into the assert_hex_atoms function:
   (Message) Let me try a different approach. Let me run the program and step
   into the assert_hex_atoms function:
   (ChatDBG gdb) list
   No symbol table is loaded.  Use the "file" command.
   
   (Message) Let me try running with debugging to get the exit status and look
   at the stack:
